; Function Attrs: nounwind sspstrong uwtable
define internal fastcc void @rb_raw_iseq_info(ptr noundef %0, i64 noundef %1, ptr noundef %2) unnamed_addr #0 {
  %.not = icmp eq i64 %1, 0
  br i1 %.not, label %38, label %4

4:                                                ; preds = %3
  %5 = getelementptr inbounds nuw i8, ptr %2, i64 16
  %6 = load ptr, ptr %5, align 8, !tbaa !640
  %.not11 = icmp eq ptr %6, null
  br i1 %.not11, label %38, label %7

7:                                                ; preds = %4
  %8 = getelementptr inbounds nuw i8, ptr %6, i64 80
  %9 = load i64, ptr %8, align 8, !tbaa !643
  %.not12 = icmp eq i64 %9, 0
  br i1 %.not12, label %38, label %10

10:                                               ; preds = %7
  %11 = getelementptr inbounds nuw i8, ptr %6, i64 64
  %12 = load i64, ptr %11, align 8, !tbaa !659
  %13 = icmp eq i64 %12, 0
  %14 = and i64 %12, 7
  %15 = icmp ne i64 %14, 0
  %16 = or i1 %13, %15
  br i1 %16, label %rbimpl_RB_TYPE_P_fastpath.exit.thread, label %rbimpl_RB_TYPE_P_fastpath.exit

rbimpl_RB_TYPE_P_fastpath.exit:                   ; preds = %10
  %17 = inttoptr i64 %12 to ptr
  %18 = load i64, ptr %17, align 8, !tbaa !113
  %19 = and i64 %18, 31
  %20 = icmp eq i64 %19, 30
  br i1 %20, label %38, label %rbimpl_RB_TYPE_P_fastpath.exit.thread

rbimpl_RB_TYPE_P_fastpath.exit.thread:            ; preds = %10, %rbimpl_RB_TYPE_P_fastpath.exit
  %21 = tail call i64 @rb_iseq_path(ptr noundef nonnull %2) #7
  %22 = load ptr, ptr %5, align 8, !tbaa !640
  %23 = getelementptr inbounds nuw i8, ptr %22, i64 88
  %24 = load i32, ptr %23, align 8, !tbaa !660
  %25 = getelementptr inbounds nuw i8, ptr %22, i64 80
  %26 = load i64, ptr %25, align 8, !tbaa !643
  %27 = inttoptr i64 %26 to ptr
  %28 = load i64, ptr %27, align 8, !tbaa !113, !noalias !661
  %29 = and i64 %28, 8192
  %.not.i.i = icmp eq i64 %29, 0
  %30 = getelementptr inbounds nuw i8, ptr %27, i64 24
  br i1 %.not.i.i, label %RSTRING_PTR.exit, label %31

31:                                               ; preds = %rbimpl_RB_TYPE_P_fastpath.exit.thread
  %.sroa.2.0.copyload.i = load ptr, ptr %30, align 8
  br label %RSTRING_PTR.exit

RSTRING_PTR.exit:                                 ; preds = %rbimpl_RB_TYPE_P_fastpath.exit.thread, %31
  %.sroa.2.0.i = phi ptr [ %.sroa.2.0.copyload.i, %31 ], [ %30, %rbimpl_RB_TYPE_P_fastpath.exit.thread ]
  %32 = inttoptr i64 %21 to ptr
  %33 = load i64, ptr %32, align 8, !tbaa !113, !noalias !664
  %34 = and i64 %33, 8192
  %.not.i.i13 = icmp eq i64 %34, 0
  %35 = getelementptr inbounds nuw i8, ptr %32, i64 24
  br i1 %.not.i.i13, label %RSTRING_PTR.exit16, label %36

36:                                               ; preds = %RSTRING_PTR.exit
  %.sroa.2.0.copyload.i14 = load ptr, ptr %35, align 8
  br label %RSTRING_PTR.exit16

RSTRING_PTR.exit16:                               ; preds = %RSTRING_PTR.exit, %36
  %.sroa.2.0.i15 = phi ptr [ %.sroa.2.0.copyload.i14, %36 ], [ %35, %RSTRING_PTR.exit ]
  %37 = tail call i32 (ptr, i64, ptr, ...) @ruby_snprintf(ptr noundef %0, i64 noundef %1, ptr noundef nonnull @.str.298, ptr noundef %.sroa.2.0.i, ptr noundef %.sroa.2.0.i15, i32 noundef %24) #7
  br label %38

38:                                               ; preds = %RSTRING_PTR.exit16, %rbimpl_RB_TYPE_P_fastpath.exit, %7, %4, %3
  ret void
}